target datalayout = "e-m:e-p270:32:32-p271:32:32-p272:64:64-i64:64-i128:128-f80:128-n8:16:32:64-S128"
target triple = "x86_64-pc-linux-gnu"

%"struct.c4::basic_substring.0" = type { ptr, i64 }

; Function Attrs: alwaysinline mustprogress nounwind willreturn memory(read) uwtable
define linkonce_odr noundef ptr @_ZN2c415basic_substringIKcE3endEv(ptr noundef nonnull align 8 dereferenceable(16) %0) #4 comdat align 2 {
  %2 = alloca ptr, align 8
  store ptr %0, ptr %2, align 8, !tbaa !45
  %3 = load ptr, ptr %2, align 8
  %4 = getelementptr inbounds nuw %"struct.c4::basic_substring.0", ptr %3, i32 0, i32 0
  %5 = load ptr, ptr %4, align 8, !tbaa !37
  %6 = getelementptr inbounds nuw %"struct.c4::basic_substring.0", ptr %3, i32 0, i32 1
  %7 = load i64, ptr %6, align 8, !tbaa !39
  %8 = getelementptr inbounds nuw i8, ptr %5, i64 %7
  ret ptr %8
}

; Function Attrs: alwaysinline mustprogress nounwind willreturn memory(read) uwtable
define linkonce_odr noundef ptr @_ZN2c415basic_substringIKcE5beginEv(ptr noundef nonnull align 8 dereferenceable(16) %0) #4 comdat align 2 {
  %2 = alloca ptr, align 8
  store ptr %0, ptr %2, align 8, !tbaa !45
  %3 = load ptr, ptr %2, align 8
  %4 = getelementptr inbounds nuw %"struct.c4::basic_substring.0", ptr %3, i32 0, i32 0
  %5 = load ptr, ptr %4, align 8, !tbaa !37
  ret ptr %5
}

; Function Attrs: mustprogress nounwind uwtable
define noundef zeroext i1 @_ZN2c412base64_validENS_15basic_substringIKcEE(ptr %0, i64 %1) #0 {
  %3 = alloca i1, align 1
  %4 = alloca %"struct.c4::basic_substring.0", align 8
  %5 = alloca ptr, align 8
  %6 = alloca ptr, align 8
  %7 = alloca ptr, align 8
  %8 = alloca i32, align 4
  %9 = alloca i8, align 1
  %10 = getelementptr inbounds nuw { ptr, i64 }, ptr %4, i32 0, i32 0
  store ptr %0, ptr %10, align 8
  %11 = getelementptr inbounds nuw { ptr, i64 }, ptr %4, i32 0, i32 1
  store i64 %1, ptr %11, align 8
  %12 = getelementptr inbounds nuw %"struct.c4::basic_substring.0", ptr %4, i32 0, i32 1
  %13 = load i64, ptr %12, align 8, !tbaa !39
  %14 = urem i64 %13, 4
  %15 = icmp ne i64 %14, 0
  br i1 %15, label %16, label %17

16:                                               ; preds = %2
  store i1 false, ptr %3, align 1
  br label %57

17:                                               ; preds = %2
  call void @llvm.lifetime.start.p0(i64 8, ptr %5) #25
  store ptr %4, ptr %5, align 8, !tbaa !45
  call void @llvm.lifetime.start.p0(i64 8, ptr %6) #25
  %18 = load ptr, ptr %5, align 8, !tbaa !45
  %19 = call noundef ptr @_ZN2c415basic_substringIKcE5beginEv(ptr noundef nonnull align 8 dereferenceable(16) %18) #26
  store ptr %19, ptr %6, align 8, !tbaa !20
  call void @llvm.lifetime.start.p0(i64 8, ptr %7) #25
  %20 = load ptr, ptr %5, align 8, !tbaa !45
  %21 = call noundef ptr @_ZN2c415basic_substringIKcE3endEv(ptr noundef nonnull align 8 dereferenceable(16) %20) #26
  store ptr %21, ptr %7, align 8, !tbaa !20
  br label %22

22:                                               ; preds = %51, %17
  %23 = load ptr, ptr %6, align 8, !tbaa !20
  %24 = load ptr, ptr %7, align 8, !tbaa !20
  %25 = icmp ne ptr %23, %24
  br i1 %25, label %27, label %26

26:                                               ; preds = %22
  store i32 2, ptr %8, align 4
  br label %54

27:                                               ; preds = %22
  call void @llvm.lifetime.start.p0(i64 1, ptr %9) #25
  %28 = load ptr, ptr %6, align 8, !tbaa !20
  %29 = load i8, ptr %28, align 1, !tbaa !68
  store i8 %29, ptr %9, align 1, !tbaa !68
  %30 = load i8, ptr %9, align 1, !tbaa !68
  %31 = sext i8 %30 to i32
  %32 = icmp slt i32 %31, 0
  br i1 %32, label %33, label %34

33:                                               ; preds = %27
  store i1 false, ptr %3, align 1
  store i32 1, ptr %8, align 4
  br label %48

34:                                               ; preds = %27
  %35 = load i8, ptr %9, align 1, !tbaa !68
  %36 = sext i8 %35 to i32
  %37 = icmp eq i32 %36, 61
  br i1 %37, label %38, label %39

38:                                               ; preds = %34
  store i32 3, ptr %8, align 4
  br label %48

39:                                               ; preds = %34
  %40 = load i8, ptr %9, align 1, !tbaa !68
  %41 = sext i8 %40 to i64
  %42 = getelementptr inbounds [128 x i8], ptr @_ZN2c46detailL22base64_char_to_sextet_E, i64 0, i64 %41
  %43 = load i8, ptr %42, align 1, !tbaa !68
  %44 = sext i8 %43 to i32
  %45 = icmp eq i32 %44, -1
  br i1 %45, label %46, label %47

46:                                               ; preds = %39
  store i1 false, ptr %3, align 1
  store i32 1, ptr %8, align 4
  br label %48

47:                                               ; preds = %39
  store i32 0, ptr %8, align 4
  br label %48

48:                                               ; preds = %47, %46, %38, %33
  call void @llvm.lifetime.end.p0(i64 1, ptr %9) #25
  %49 = load i32, ptr %8, align 4
  switch i32 %49, label %54 [
    i32 0, label %50
    i32 3, label %51
  ]

50:                                               ; preds = %48
  br label %51

51:                                               ; preds = %50, %48
  %52 = load ptr, ptr %6, align 8, !tbaa !20
  %53 = getelementptr inbounds nuw i8, ptr %52, i32 1
  store ptr %53, ptr %6, align 8, !tbaa !20
  br label %22

54:                                               ; preds = %48, %26
  call void @llvm.lifetime.end.p0(i64 8, ptr %7) #25
  call void @llvm.lifetime.end.p0(i64 8, ptr %6) #25
  call void @llvm.lifetime.end.p0(i64 8, ptr %5) #25
  %55 = load i32, ptr %8, align 4
  switch i32 %55, label %59 [
    i32 2, label %56
    i32 1, label %57
  ]

56:                                               ; preds = %54
  store i1 true, ptr %3, align 1
  br label %57

57:                                               ; preds = %56, %54, %16
  %58 = load i1, ptr %3, align 1
  ret i1 %58

59:                                               ; preds = %54
  unreachable
}