; Function Attrs: mustprogress nofree norecurse nosync nounwind willreturn memory(argmem: read) uwtable
define noundef zeroext i1 @_ZN2c412base64_validENS_15basic_substringIKcEE(ptr readonly %0, i64 %1) local_unnamed_addr #11 {
  %3 = and i64 %1, 3
  %.not = icmp eq i64 %3, 0
  br i1 %.not, label %4, label %.thread

4:                                                ; preds = %2
  %5 = getelementptr inbounds nuw i8, ptr %0, i64 %1
  %.not1518 = icmp samesign eq i64 %1, 0
  br i1 %.not1518, label %.thread, label %.lr.ph

.lr.ph:                                           ; preds = %4, %15
  %.01319 = phi ptr [ %16, %15 ], [ %0, %4 ]
  %6 = load i8, ptr %.01319, align 1, !tbaa !45
  %7 = icmp slt i8 %6, 0
  br i1 %7, label %.thread, label %8

8:                                                ; preds = %.lr.ph
  %9 = icmp eq i8 %6, 61
  br i1 %9, label %15, label %10

10:                                               ; preds = %8
  %11 = zext nneg i8 %6 to i64
  %12 = getelementptr inbounds nuw [128 x i8], ptr @_ZN2c46detailL22base64_char_to_sextet_E, i64 0, i64 %11
  %13 = load i8, ptr %12, align 1, !tbaa !45
  %14 = icmp eq i8 %13, -1
  br i1 %14, label %.thread, label %15

15:                                               ; preds = %8, %10
  %16 = getelementptr inbounds nuw i8, ptr %.01319, i64 1
  %.not15 = icmp eq ptr %16, %5
  br i1 %.not15, label %.thread, label %.lr.ph

.thread:                                          ; preds = %10, %.lr.ph, %15, %4, %2
  %.0 = phi i1 [ false, %2 ], [ true, %4 ], [ false, %10 ], [ false, %.lr.ph ], [ true, %15 ]
  ret i1 %.0
}